; Function Attrs: mustprogress uwtable
define noundef zeroext i1 @_Z15gmx_fio_getreadP8t_fileio(ptr noundef %0) local_unnamed_addr #0 {
  %2 = getelementptr inbounds nuw i8, ptr %0, i64 88
  tail call void @_Z14tMPI_Lock_lockP9tMPI_Lock(ptr noundef nonnull %2)
  %3 = getelementptr inbounds nuw i8, ptr %0, i64 8
  %4 = load i8, ptr %3, align 8, !tbaa !38, !range !51, !noundef !52
  %5 = trunc nuw i8 %4 to i1
  tail call void @_Z16tMPI_Lock_unlockP9tMPI_Lock(ptr noundef nonnull %2)
  ret i1 %5
}